target datalayout = "e-m:e-p270:32:32-p271:32:32-p272:64:64-i64:64-i128:128-f80:128-n8:16:32:64-S128"
target triple = "x86_64-pc-linux-gnu"

%"struct.Luau::CodeGen::X64::RegisterX64" = type { i8 }
%"class.Luau::CodeGen::X64::AssemblyBuilderX64" = type <{ %"class.std::vector", %"class.std::vector", %"class.std::__cxx11::basic_string", i8, [3 x i8], i32, i32, [4 x i8], %"class.std::vector.3", %"class.std::vector.8", %"class.Luau::DenseHashMap", %"class.Luau::DenseHashMap.13", i8, [7 x i8], i64, ptr, ptr, i32, [4 x i8] }>
%"class.std::vector" = type { %"struct.std::_Vector_base" }
%"struct.std::_Vector_base" = type { %"struct.std::_Vector_base<unsigned char, std::allocator<unsigned char>>::_Vector_impl" }
%"struct.std::_Vector_base<unsigned char, std::allocator<unsigned char>>::_Vector_impl" = type { %"struct.std::_Vector_base<unsigned char, std::allocator<unsigned char>>::_Vector_impl_data" }
%"struct.std::_Vector_base<unsigned char, std::allocator<unsigned char>>::_Vector_impl_data" = type { ptr, ptr, ptr }
%"class.std::__cxx11::basic_string" = type { %"struct.std::__cxx11::basic_string<char>::_Alloc_hider", i64, %union.anon }
%"struct.std::__cxx11::basic_string<char>::_Alloc_hider" = type { ptr }
%union.anon = type { i64, [8 x i8] }
%"class.std::vector.3" = type { %"struct.std::_Vector_base.4" }
%"struct.std::_Vector_base.4" = type { %"struct.std::_Vector_base<Luau::CodeGen::Label, std::allocator<Luau::CodeGen::Label>>::_Vector_impl" }
%"struct.std::_Vector_base<Luau::CodeGen::Label, std::allocator<Luau::CodeGen::Label>>::_Vector_impl" = type { %"struct.std::_Vector_base<Luau::CodeGen::Label, std::allocator<Luau::CodeGen::Label>>::_Vector_impl_data" }
%"struct.std::_Vector_base<Luau::CodeGen::Label, std::allocator<Luau::CodeGen::Label>>::_Vector_impl_data" = type { ptr, ptr, ptr }
%"class.std::vector.8" = type { %"struct.std::_Vector_base.9" }
%"struct.std::_Vector_base.9" = type { %"struct.std::_Vector_base<unsigned int, std::allocator<unsigned int>>::_Vector_impl" }
%"struct.std::_Vector_base<unsigned int, std::allocator<unsigned int>>::_Vector_impl" = type { %"struct.std::_Vector_base<unsigned int, std::allocator<unsigned int>>::_Vector_impl_data" }
%"struct.std::_Vector_base<unsigned int, std::allocator<unsigned int>>::_Vector_impl_data" = type { ptr, ptr, ptr }
%"class.Luau::DenseHashMap" = type { %"class.Luau::detail::DenseHashTable" }
%"class.Luau::detail::DenseHashTable" = type <{ ptr, i64, i64, i32, [4 x i8] }>
%"class.Luau::DenseHashMap.13" = type { %"class.Luau::detail::DenseHashTable.14" }
%"class.Luau::detail::DenseHashTable.14" = type <{ ptr, i64, i64, i64, [8 x i8] }>
%"struct.Luau::CodeGen::X64::OperandX64" = type { i8, %"struct.Luau::CodeGen::X64::RegisterX64", %"struct.Luau::CodeGen::X64::RegisterX64", i8, i32 }

; Function Attrs: mustprogress nounwind uwtable
define dso_local void @_ZN4Luau7CodeGen3X6418AssemblyBuilderX645placeEh(ptr noundef nonnull align 8 dereferenceable(252) %0, i8 noundef zeroext %1) #1 align 2 {
  %3 = alloca ptr, align 8
  %4 = alloca i8, align 1
  store ptr %0, ptr %3, align 8, !tbaa !4
  store i8 %1, ptr %4, align 1, !tbaa !79
  %5 = load ptr, ptr %3, align 8
  %6 = load i8, ptr %4, align 1, !tbaa !79
  %7 = getelementptr inbounds nuw %"class.Luau::CodeGen::X64::AssemblyBuilderX64", ptr %5, i32 0, i32 15
  %8 = load ptr, ptr %7, align 8, !tbaa !52
  %9 = getelementptr inbounds nuw i8, ptr %8, i32 1
  store ptr %9, ptr %7, align 8, !tbaa !52
  store i8 %6, ptr %8, align 1, !tbaa !79
  ret void
}

; Function Attrs: mustprogress uwtable
define dso_local void @_ZN4Luau7CodeGen3X6418AssemblyBuilderX648placeRexENS1_10OperandX64E(ptr noundef nonnull align 8 dereferenceable(252) %0, i64 %1) #0 align 2 {
  %3 = alloca %"struct.Luau::CodeGen::X64::OperandX64", align 4
  %4 = alloca ptr, align 8
  %5 = alloca i8, align 1
  store i64 %1, ptr %3, align 4
  store ptr %0, ptr %4, align 8, !tbaa !4
  %6 = load ptr, ptr %4, align 8
  call void @llvm.lifetime.start.p0(i64 1, ptr %5) #17
  store i8 0, ptr %5, align 1, !tbaa !79
  %7 = getelementptr inbounds nuw %"struct.Luau::CodeGen::X64::OperandX64", ptr %3, i32 0, i32 0
  %8 = load i8, ptr %7, align 4, !tbaa !81
  %9 = icmp eq i8 %8, 0
  br i1 %9, label %10, label %39

10:                                               ; preds = %2
  %11 = getelementptr inbounds nuw %"struct.Luau::CodeGen::X64::OperandX64", ptr %3, i32 0, i32 2
  %12 = load i8, ptr %11, align 2
  %13 = and i8 %12, 7
  %14 = icmp eq i8 %13, 4
  br i1 %14, label %28, label %15

15:                                               ; preds = %10
  %16 = getelementptr inbounds nuw %"struct.Luau::CodeGen::X64::OperandX64", ptr %3, i32 0, i32 2
  %17 = load i8, ptr %16, align 2
  %18 = and i8 %17, 7
  %19 = icmp eq i8 %18, 1
  br i1 %19, label %20, label %26

20:                                               ; preds = %15
  %21 = getelementptr inbounds nuw %"struct.Luau::CodeGen::X64::OperandX64", ptr %3, i32 0, i32 2
  %22 = load i8, ptr %21, align 2
  %23 = lshr i8 %22, 3
  %24 = zext i8 %23 to i32
  %25 = icmp sge i32 %24, 4
  br label %26

26:                                               ; preds = %20, %15
  %27 = phi i1 [ false, %15 ], [ %25, %20 ]
  br label %28

28:                                               ; preds = %26, %10
  %29 = phi i1 [ true, %10 ], [ %27, %26 ]
  %30 = select i1 %29, i32 8, i32 0
  %31 = getelementptr inbounds nuw %"struct.Luau::CodeGen::X64::OperandX64", ptr %3, i32 0, i32 2
  %32 = load i8, ptr %31, align 2
  %33 = lshr i8 %32, 3
  %34 = zext i8 %33 to i32
  %35 = and i32 %34, 8
  %36 = ashr i32 %35, 3
  %37 = or i32 %30, %36
  %38 = trunc i32 %37 to i8
  store i8 %38, ptr %5, align 1, !tbaa !79
  br label %66

39:                                               ; preds = %2
  %40 = getelementptr inbounds nuw %"struct.Luau::CodeGen::X64::OperandX64", ptr %3, i32 0, i32 0
  %41 = load i8, ptr %40, align 4, !tbaa !81
  %42 = icmp eq i8 %41, 1
  br i1 %42, label %43, label %64

43:                                               ; preds = %39
  %44 = getelementptr inbounds nuw %"struct.Luau::CodeGen::X64::OperandX64", ptr %3, i32 0, i32 3
  %45 = load i8, ptr %44, align 1
  %46 = and i8 %45, 15
  %47 = icmp eq i8 %46, 4
  %48 = select i1 %47, i32 8, i32 0
  %49 = getelementptr inbounds nuw %"struct.Luau::CodeGen::X64::OperandX64", ptr %3, i32 0, i32 1
  %50 = load i8, ptr %49, align 1
  %51 = lshr i8 %50, 3
  %52 = zext i8 %51 to i32
  %53 = and i32 %52, 8
  %54 = ashr i32 %53, 2
  %55 = or i32 %48, %54
  %56 = getelementptr inbounds nuw %"struct.Luau::CodeGen::X64::OperandX64", ptr %3, i32 0, i32 2
  %57 = load i8, ptr %56, align 2
  %58 = lshr i8 %57, 3
  %59 = zext i8 %58 to i32
  %60 = and i32 %59, 8
  %61 = ashr i32 %60, 3
  %62 = or i32 %55, %61
  %63 = trunc i32 %62 to i8
  store i8 %63, ptr %5, align 1, !tbaa !79
  br label %65

64:                                               ; preds = %39
  br label %65

65:                                               ; preds = %64, %43
  br label %66

66:                                               ; preds = %65, %28
  %67 = load i8, ptr %5, align 1, !tbaa !79
  %68 = zext i8 %67 to i32
  %69 = icmp ne i32 %68, 0
  br i1 %69, label %70, label %75

70:                                               ; preds = %66
  %71 = load i8, ptr %5, align 1, !tbaa !79
  %72 = zext i8 %71 to i32
  %73 = or i32 %72, 64
  %74 = trunc i32 %73 to i8
  call void @_ZN4Luau7CodeGen3X6418AssemblyBuilderX645placeEh(ptr noundef nonnull align 8 dereferenceable(252) %6, i8 noundef zeroext %74)
  br label %75

75:                                               ; preds = %70, %66
  call void @llvm.lifetime.end.p0(i64 1, ptr %5) #17
  ret void
}