; Function Attrs: mustprogress nofree norecurse nosync nounwind willreturn memory(write, argmem: readwrite, inaccessiblemem: none) uwtable
define dso_local void @_ZN4Luau7CodeGen3X6418AssemblyBuilderX648placeRexENS1_10OperandX64E(ptr noundef nonnull align 8 captures(none) dereferenceable(252) %0, i64 %1) local_unnamed_addr #5 align 2 {
  %.sroa.0.0.extract.trunc = trunc i64 %1 to i8
  %.sroa.4.0.extract.shift = lshr i64 %1, 16
  %.sroa.4.0.extract.trunc = trunc i64 %.sroa.4.0.extract.shift to i8
  switch i8 %.sroa.0.0.extract.trunc, label %.thread [
    i8 0, label %3
    i8 1, label %14
  ]

3:                                                ; preds = %2
  %4 = and i8 %.sroa.4.0.extract.trunc, 7
  %5 = icmp eq i8 %4, 4
  %6 = icmp eq i8 %4, 1
  %7 = icmp ugt i8 %.sroa.4.0.extract.trunc, 31
  %8 = and i1 %7, %6
  %9 = or i1 %5, %8
  %10 = select i1 %9, i8 8, i8 0
  %11 = lshr i8 %.sroa.4.0.extract.trunc, 6
  %12 = and i8 %11, 1
  %13 = or disjoint i8 %10, %12
  br label %26

14:                                               ; preds = %2
  %15 = and i64 %1, 251658240
  %16 = icmp eq i64 %15, 67108864
  %17 = select i1 %16, i32 8, i32 0
  %18 = trunc i64 %1 to i32
  %19 = lshr i32 %18, 13
  %20 = and i32 %19, 2
  %21 = or disjoint i32 %17, %20
  %22 = lshr i8 %.sroa.4.0.extract.trunc, 6
  %23 = and i8 %22, 1
  %24 = trunc nuw nsw i32 %21 to i8
  %25 = or disjoint i8 %23, %24
  br label %26

26:                                               ; preds = %14, %3
  %.0 = phi i8 [ %13, %3 ], [ %25, %14 ]
  %.not = icmp eq i8 %.0, 0
  br i1 %.not, label %.thread, label %27

27:                                               ; preds = %26
  %28 = or i8 %.0, 64
  %29 = getelementptr inbounds nuw i8, ptr %0, i64 232
  %30 = load ptr, ptr %29, align 8, !tbaa !51
  %31 = getelementptr inbounds nuw i8, ptr %30, i64 1
  store ptr %31, ptr %29, align 8, !tbaa !51
  store i8 %28, ptr %30, align 1, !tbaa !13
  br label %.thread

.thread:                                          ; preds = %2, %27, %26
  ret void
}